; Function Attrs: mustprogress uwtable
define internal fastcc void @_ZN7Imf_3_412_GLOBAL__N_121checkIsNullTerminatedILm256EEEvRAT__KcPS2_(ptr noundef nonnull readonly align 1 captures(none) dereferenceable(256) %0, ptr noundef %1) unnamed_addr #5 personality ptr @__gxx_personality_v0 {
  %3 = alloca %"class.std::__cxx11::basic_stringstream", align 8
  br label %6

4:                                                ; preds = %6
  %5 = add nuw nsw i64 %.0916, 1
  %exitcond.not = icmp eq i64 %5, 256
  br i1 %exitcond.not, label %10, label %6, !llvm.loop !94

6:                                                ; preds = %2, %4
  %.0916 = phi i64 [ 0, %2 ], [ %5, %4 ]
  %7 = getelementptr inbounds nuw [256 x i8], ptr %0, i64 0, i64 %.0916
  %8 = load i8, ptr %7, align 1, !tbaa !44
  %9 = icmp eq i8 %8, 0
  br i1 %9, label %25, label %4

10:                                               ; preds = %4
  call void @llvm.lifetime.start.p0(i64 392, ptr nonnull %3) #29
  call void @_ZNSt7__cxx1118basic_stringstreamIcSt11char_traitsIcESaIcEEC1Ev(ptr noundef nonnull align 8 dereferenceable(128) %3)
  %11 = getelementptr inbounds nuw i8, ptr %3, i64 16
  %12 = invoke noundef nonnull align 8 dereferenceable(8) ptr @_ZSt16__ostream_insertIcSt11char_traitsIcEERSt13basic_ostreamIT_T0_ES6_PKS3_l(ptr noundef nonnull align 8 dereferenceable(8) %11, ptr noundef nonnull @.str.77, i64 noundef 8)
          to label %_ZStlsISt11char_traitsIcEERSt13basic_ostreamIcT_ES5_PKc.exit unwind label %20

_ZStlsISt11char_traitsIcEERSt13basic_ostreamIcT_ES5_PKc.exit: ; preds = %10
  %13 = invoke noundef nonnull align 8 dereferenceable(8) ptr @_ZStlsISt11char_traitsIcEERSt13basic_ostreamIcT_ES5_PKc(ptr noundef nonnull align 8 dereferenceable(8) %11, ptr noundef %1)
          to label %14 unwind label %20

14:                                               ; preds = %_ZStlsISt11char_traitsIcEERSt13basic_ostreamIcT_ES5_PKc.exit
  %15 = invoke noundef nonnull align 8 dereferenceable(8) ptr @_ZSt16__ostream_insertIcSt11char_traitsIcEERSt13basic_ostreamIT_T0_ES6_PKS3_l(ptr noundef nonnull align 8 dereferenceable(8) %13, ptr noundef nonnull @.str.78, i64 noundef 18)
          to label %_ZStlsISt11char_traitsIcEERSt13basic_ostreamIcT_ES5_PKc.exit11 unwind label %20

_ZStlsISt11char_traitsIcEERSt13basic_ostreamIcT_ES5_PKc.exit11: ; preds = %14
  %16 = invoke noundef nonnull align 8 dereferenceable(8) ptr @_ZNSo9_M_insertImEERSoT_(ptr noundef nonnull align 8 dereferenceable(8) %13, i64 noundef 255)
          to label %_ZNSolsEm.exit unwind label %20

_ZNSolsEm.exit:                                   ; preds = %_ZStlsISt11char_traitsIcEERSt13basic_ostreamIcT_ES5_PKc.exit11
  %17 = invoke noundef nonnull align 8 dereferenceable(8) ptr @_ZSt16__ostream_insertIcSt11char_traitsIcEERSt13basic_ostreamIT_T0_ES6_PKS3_l(ptr noundef nonnull align 8 dereferenceable(8) %16, ptr noundef nonnull @.str.79, i64 noundef 17)
          to label %_ZStlsISt11char_traitsIcEERSt13basic_ostreamIcT_ES5_PKc.exit12 unwind label %20

_ZStlsISt11char_traitsIcEERSt13basic_ostreamIcT_ES5_PKc.exit12: ; preds = %_ZNSolsEm.exit
  %18 = call ptr @__cxa_allocate_exception(i64 72) #29
  invoke void @_ZN7Iex_3_48InputExcC1ERNSt7__cxx1118basic_stringstreamIcSt11char_traitsIcESaIcEEE(ptr noundef nonnull align 8 dereferenceable(72) %18, ptr noundef nonnull align 8 dereferenceable(128) %3)
          to label %19 unwind label %22

19:                                               ; preds = %_ZStlsISt11char_traitsIcEERSt13basic_ostreamIcT_ES5_PKc.exit12
  invoke void @__cxa_throw(ptr nonnull %18, ptr nonnull @_ZTIN7Iex_3_48InputExcE, ptr nonnull @_ZN7Iex_3_48InputExcD1Ev) #30
          to label %26 unwind label %20

20:                                               ; preds = %_ZNSolsEm.exit, %_ZStlsISt11char_traitsIcEERSt13basic_ostreamIcT_ES5_PKc.exit11, %14, %10, %19, %_ZStlsISt11char_traitsIcEERSt13basic_ostreamIcT_ES5_PKc.exit
  %21 = landingpad { ptr, i32 }
          cleanup
  br label %24

22:                                               ; preds = %_ZStlsISt11char_traitsIcEERSt13basic_ostreamIcT_ES5_PKc.exit12
  %23 = landingpad { ptr, i32 }
          cleanup
  call void @__cxa_free_exception(ptr nonnull %18) #29
  br label %24

24:                                               ; preds = %22, %20
  %.pn = phi { ptr, i32 } [ %21, %20 ], [ %23, %22 ]
  call void @_ZNSt7__cxx1118basic_stringstreamIcSt11char_traitsIcESaIcEED1Ev(ptr noundef nonnull align 8 dereferenceable(128) %3) #29
  call void @llvm.lifetime.end.p0(i64 392, ptr nonnull %3) #29
  resume { ptr, i32 } %.pn

25:                                               ; preds = %6
  ret void

26:                                               ; preds = %19
  unreachable
}